; Function Attrs: mustprogress nofree norecurse nosync nounwind willreturn memory(argmem: read) uwtable
define hidden { ptr, i64 } @_ZNK17ReservedHeapSpace6regionEv(ptr nocapture noundef nonnull readonly align 8 dereferenceable(49) %0) local_unnamed_addr #6 align 2 {
  %2 = load ptr, ptr %0, align 8
  %3 = getelementptr inbounds i8, ptr %0, i64 8
  %4 = load i64, ptr %3, align 8
  %5 = lshr i64 %4, 3
  %.fca.0.insert = insertvalue { ptr, i64 } poison, ptr %2, 0
  %.fca.1.insert = insertvalue { ptr, i64 } %.fca.0.insert, i64 %5, 1
  ret { ptr, i64 } %.fca.1.insert
}